target datalayout = "e-m:e-p270:32:32-p271:32:32-p272:64:64-i64:64-i128:128-f80:128-n8:16:32:64-S128"
target triple = "x86_64-pc-linux-gnu"

%struct.pmix_bfrop_type_info_t = type { %struct.pmix_object_t, i16, ptr, ptr, ptr, ptr, ptr }
%struct.pmix_object_t = type { %union.pthread_mutex_t, ptr, i32, %struct.pmix_tma }
%union.pthread_mutex_t = type { %struct.__pthread_mutex_s }
%struct.__pthread_mutex_s = type { i32, i32, i32, i32, i32, i16, i16, %struct.__pthread_internal_list }
%struct.__pthread_internal_list = type { ptr, ptr }
%struct.pmix_tma = type { ptr, ptr, ptr, ptr, ptr, ptr, ptr, ptr }
%struct.pmix_pointer_array_t = type { %struct.pmix_object_t, i32, i32, i32, i32, i32, ptr, ptr }
%struct.pmix_topology_t = type { ptr, ptr }
%struct.hwloc_topology_support = type { ptr, ptr, ptr, ptr }

@.str = private unnamed_addr constant [6 x i8] c"hwloc\00", align 1

; Function Attrs: inlinehint nounwind uwtable
define internal ptr @pmix_pointer_array_get_item(ptr noundef %0, i32 noundef %1) #2 {
  %3 = alloca ptr, align 8
  %4 = alloca ptr, align 8
  %5 = alloca i32, align 4
  %6 = alloca ptr, align 8
  %7 = alloca i32, align 4
  store ptr %0, ptr %4, align 8, !tbaa !7
  store i32 %1, ptr %5, align 4, !tbaa !11
  call void @llvm.lifetime.start.p0(i64 8, ptr %6) #8
  %8 = load i32, ptr %5, align 4, !tbaa !11
  %9 = icmp sgt i32 0, %8
  br i1 %9, label %16, label %10

10:                                               ; preds = %2
  %11 = load ptr, ptr %4, align 8, !tbaa !7
  %12 = getelementptr inbounds nuw %struct.pmix_pointer_array_t, ptr %11, i32 0, i32 3
  %13 = load i32, ptr %12, align 8, !tbaa !22
  %14 = load i32, ptr %5, align 4, !tbaa !11
  %15 = icmp sle i32 %13, %14
  br label %16

16:                                               ; preds = %10, %2
  %17 = phi i1 [ true, %2 ], [ %15, %10 ]
  %18 = xor i1 %17, true
  %19 = xor i1 %18, true
  %20 = zext i1 %19 to i32
  %21 = sext i32 %20 to i64
  %22 = call i64 @llvm.expect.i64(i64 %21, i64 0)
  %23 = icmp ne i64 %22, 0
  br i1 %23, label %24, label %25

24:                                               ; preds = %16
  store ptr null, ptr %3, align 8
  store i32 1, ptr %7, align 4
  br label %34

25:                                               ; preds = %16
  %26 = load ptr, ptr %4, align 8, !tbaa !7
  %27 = getelementptr inbounds nuw %struct.pmix_pointer_array_t, ptr %26, i32 0, i32 7
  %28 = load ptr, ptr %27, align 8, !tbaa !25
  %29 = load i32, ptr %5, align 4, !tbaa !11
  %30 = sext i32 %29 to i64
  %31 = getelementptr inbounds ptr, ptr %28, i64 %30
  %32 = load ptr, ptr %31, align 8, !tbaa !3
  store ptr %32, ptr %6, align 8, !tbaa !3
  %33 = load ptr, ptr %6, align 8, !tbaa !3
  store ptr %33, ptr %3, align 8
  store i32 1, ptr %7, align 4
  br label %34

34:                                               ; preds = %25, %24
  call void @llvm.lifetime.end.p0(i64 8, ptr %6) #8
  %35 = load ptr, ptr %3, align 8
  ret ptr %35
}

; Function Attrs: nounwind uwtable
define i32 @pmix_hwloc_unpack_topology(ptr noundef %0, ptr noundef %1, ptr noundef %2) #0 {
  %4 = alloca i32, align 4
  %5 = alloca ptr, align 8
  %6 = alloca ptr, align 8
  %7 = alloca ptr, align 8
  %8 = alloca i32, align 4
  %9 = alloca ptr, align 8
  %10 = alloca i32, align 4
  %11 = alloca ptr, align 8
  %12 = alloca ptr, align 8
  %13 = alloca i64, align 8
  %14 = alloca ptr, align 8
  %15 = alloca i32, align 4
  %16 = alloca ptr, align 8
  %17 = alloca ptr, align 8
  %18 = alloca ptr, align 8
  store ptr %0, ptr %5, align 8, !tbaa !3
  store ptr %1, ptr %6, align 8, !tbaa !3
  store ptr %2, ptr %7, align 8, !tbaa !7
  call void @llvm.lifetime.start.p0(i64 4, ptr %8) #8
  call void @llvm.lifetime.start.p0(i64 8, ptr %9) #8
  store ptr null, ptr %9, align 8, !tbaa !9
  call void @llvm.lifetime.start.p0(i64 4, ptr %10) #8
  call void @llvm.lifetime.start.p0(i64 8, ptr %11) #8
  call void @llvm.lifetime.start.p0(i64 8, ptr %12) #8
  call void @llvm.lifetime.start.p0(i64 8, ptr %13) #8
  store i32 1, ptr %10, align 4, !tbaa !11
  br label %19

19:                                               ; preds = %3
  call void @llvm.lifetime.start.p0(i64 8, ptr %14) #8
  %20 = load ptr, ptr %7, align 8, !tbaa !7
  %21 = call ptr @pmix_pointer_array_get_item(ptr noundef %20, i32 noundef 3)
  store ptr %21, ptr %14, align 8, !tbaa !3
  %22 = load ptr, ptr %14, align 8, !tbaa !3
  %23 = icmp eq ptr null, %22
  br i1 %23, label %24, label %25

24:                                               ; preds = %19
  store i32 -16, ptr %8, align 4, !tbaa !11
  br label %32

25:                                               ; preds = %19
  %26 = load ptr, ptr %14, align 8, !tbaa !3
  %27 = getelementptr inbounds nuw %struct.pmix_bfrop_type_info_t, ptr %26, i32 0, i32 4
  %28 = load ptr, ptr %27, align 8, !tbaa !26
  %29 = load ptr, ptr %7, align 8, !tbaa !7
  %30 = load ptr, ptr %5, align 8, !tbaa !3
  %31 = call i32 %28(ptr noundef %29, ptr noundef %30, ptr noundef %9, ptr noundef %10, i16 noundef zeroext 3)
  store i32 %31, ptr %8, align 4, !tbaa !11
  br label %32

32:                                               ; preds = %25, %24
  call void @llvm.lifetime.end.p0(i64 8, ptr %14) #8
  br label %33

33:                                               ; preds = %32
  br label %34

34:                                               ; preds = %33
  %35 = load i32, ptr %8, align 4, !tbaa !11
  %36 = icmp ne i32 0, %35
  br i1 %36, label %37, label %39

37:                                               ; preds = %34
  %38 = load i32, ptr %8, align 4, !tbaa !11
  store i32 %38, ptr %4, align 4
  store i32 1, ptr %15, align 4
  br label %169

39:                                               ; preds = %34
  %40 = load ptr, ptr %9, align 8, !tbaa !9
  %41 = icmp eq ptr null, %40
  br i1 %41, label %42, label %48

42:                                               ; preds = %39
  %43 = call noalias ptr @strdup(ptr noundef @.str) #8
  %44 = load ptr, ptr %6, align 8, !tbaa !3
  %45 = getelementptr inbounds nuw %struct.pmix_topology_t, ptr %44, i32 0, i32 0
  store ptr %43, ptr %45, align 8, !tbaa !19
  %46 = load ptr, ptr %6, align 8, !tbaa !3
  %47 = getelementptr inbounds nuw %struct.pmix_topology_t, ptr %46, i32 0, i32 1
  store ptr null, ptr %47, align 8, !tbaa !21
  store i32 0, ptr %4, align 4
  store i32 1, ptr %15, align 4
  br label %169

48:                                               ; preds = %39
  %49 = call i32 @hwloc_topology_init(ptr noundef %12)
  %50 = icmp ne i32 0, %49
  br i1 %50, label %51, label %54

51:                                               ; preds = %48
  store i32 -1, ptr %8, align 4, !tbaa !11
  %52 = load ptr, ptr %9, align 8, !tbaa !9
  call void @free(ptr noundef %52) #8
  %53 = load i32, ptr %8, align 4, !tbaa !11
  store i32 %53, ptr %4, align 4
  store i32 1, ptr %15, align 4
  br label %169

54:                                               ; preds = %48
  %55 = load ptr, ptr %12, align 8, !tbaa !44
  %56 = load ptr, ptr %9, align 8, !tbaa !9
  %57 = load ptr, ptr %9, align 8, !tbaa !9
  %58 = call i64 @strlen(ptr noundef %57) #9
  %59 = trunc i64 %58 to i32
  %60 = call i32 @hwloc_topology_set_xmlbuffer(ptr noundef %55, ptr noundef %56, i32 noundef %59)
  %61 = icmp ne i32 0, %60
  br i1 %61, label %62, label %66

62:                                               ; preds = %54
  store i32 -1, ptr %8, align 4, !tbaa !11
  %63 = load ptr, ptr %9, align 8, !tbaa !9
  call void @free(ptr noundef %63) #8
  %64 = load ptr, ptr %12, align 8, !tbaa !44
  call void @hwloc_topology_destroy(ptr noundef %64)
  %65 = load i32, ptr %8, align 4, !tbaa !11
  store i32 %65, ptr %4, align 4
  store i32 1, ptr %15, align 4
  br label %169

66:                                               ; preds = %54
  %67 = load ptr, ptr %9, align 8, !tbaa !9
  call void @free(ptr noundef %67) #8
  store i64 2, ptr %13, align 8, !tbaa !27
  %68 = load ptr, ptr %12, align 8, !tbaa !44
  %69 = call i32 @hwloc_topology_set_io_types_filter(ptr noundef %68, i32 noundef 3)
  %70 = icmp ne i32 0, %69
  br i1 %70, label %71, label %73

71:                                               ; preds = %66
  %72 = load ptr, ptr %12, align 8, !tbaa !44
  call void @hwloc_topology_destroy(ptr noundef %72)
  store i32 -1, ptr %4, align 4
  store i32 1, ptr %15, align 4
  br label %169

73:                                               ; preds = %66
  %74 = load i64, ptr %13, align 8, !tbaa !27
  %75 = or i64 %74, 1
  store i64 %75, ptr %13, align 8, !tbaa !27
  %76 = load ptr, ptr %12, align 8, !tbaa !44
  %77 = load i64, ptr %13, align 8, !tbaa !27
  %78 = call i32 @hwloc_topology_set_flags(ptr noundef %76, i64 noundef %77)
  %79 = icmp ne i32 0, %78
  br i1 %79, label %80, label %82

80:                                               ; preds = %73
  %81 = load ptr, ptr %12, align 8, !tbaa !44
  call void @hwloc_topology_destroy(ptr noundef %81)
  store i32 -1, ptr %4, align 4
  store i32 1, ptr %15, align 4
  br label %169

82:                                               ; preds = %73
  %83 = load ptr, ptr %12, align 8, !tbaa !44
  %84 = call i32 @hwloc_topology_load(ptr noundef %83)
  %85 = icmp ne i32 0, %84
  br i1 %85, label %86, label %88

86:                                               ; preds = %82
  %87 = load ptr, ptr %12, align 8, !tbaa !44
  call void @hwloc_topology_destroy(ptr noundef %87)
  store i32 -1, ptr %4, align 4
  store i32 1, ptr %15, align 4
  br label %169

88:                                               ; preds = %82
  %89 = load ptr, ptr %12, align 8, !tbaa !44
  %90 = call ptr @hwloc_topology_get_support(ptr noundef %89)
  store ptr %90, ptr %11, align 8, !tbaa !34
  store i32 6, ptr %10, align 4, !tbaa !11
  br label %91

91:                                               ; preds = %88
  call void @llvm.lifetime.start.p0(i64 8, ptr %16) #8
  %92 = load ptr, ptr %7, align 8, !tbaa !7
  %93 = call ptr @pmix_pointer_array_get_item(ptr noundef %92, i32 noundef 2)
  store ptr %93, ptr %16, align 8, !tbaa !3
  %94 = load ptr, ptr %16, align 8, !tbaa !3
  %95 = icmp eq ptr null, %94
  br i1 %95, label %96, label %97

96:                                               ; preds = %91
  store i32 -16, ptr %8, align 4, !tbaa !11
  br label %107

97:                                               ; preds = %91
  %98 = load ptr, ptr %16, align 8, !tbaa !3
  %99 = getelementptr inbounds nuw %struct.pmix_bfrop_type_info_t, ptr %98, i32 0, i32 4
  %100 = load ptr, ptr %99, align 8, !tbaa !26
  %101 = load ptr, ptr %7, align 8, !tbaa !7
  %102 = load ptr, ptr %5, align 8, !tbaa !3
  %103 = load ptr, ptr %11, align 8, !tbaa !34
  %104 = getelementptr inbounds nuw %struct.hwloc_topology_support, ptr %103, i32 0, i32 0
  %105 = load ptr, ptr %104, align 8, !tbaa !36
  %106 = call i32 %100(ptr noundef %101, ptr noundef %102, ptr noundef %105, ptr noundef %10, i16 noundef zeroext 2)
  store i32 %106, ptr %8, align 4, !tbaa !11
  br label %107

107:                                              ; preds = %97, %96
  call void @llvm.lifetime.end.p0(i64 8, ptr %16) #8
  br label %108

108:                                              ; preds = %107
  br label %109

109:                                              ; preds = %108
  %110 = load i32, ptr %8, align 4, !tbaa !11
  %111 = icmp ne i32 0, %110
  br i1 %111, label %112, label %114

112:                                              ; preds = %109
  %113 = load ptr, ptr %12, align 8, !tbaa !44
  call void @hwloc_topology_destroy(ptr noundef %113)
  store i32 -1, ptr %4, align 4
  store i32 1, ptr %15, align 4
  br label %169

114:                                              ; preds = %109
  store i32 11, ptr %10, align 4, !tbaa !11
  br label %115

115:                                              ; preds = %114
  call void @llvm.lifetime.start.p0(i64 8, ptr %17) #8
  %116 = load ptr, ptr %7, align 8, !tbaa !7
  %117 = call ptr @pmix_pointer_array_get_item(ptr noundef %116, i32 noundef 2)
  store ptr %117, ptr %17, align 8, !tbaa !3
  %118 = load ptr, ptr %17, align 8, !tbaa !3
  %119 = icmp eq ptr null, %118
  br i1 %119, label %120, label %121

120:                                              ; preds = %115
  store i32 -16, ptr %8, align 4, !tbaa !11
  br label %131

121:                                              ; preds = %115
  %122 = load ptr, ptr %17, align 8, !tbaa !3
  %123 = getelementptr inbounds nuw %struct.pmix_bfrop_type_info_t, ptr %122, i32 0, i32 4
  %124 = load ptr, ptr %123, align 8, !tbaa !26
  %125 = load ptr, ptr %7, align 8, !tbaa !7
  %126 = load ptr, ptr %5, align 8, !tbaa !3
  %127 = load ptr, ptr %11, align 8, !tbaa !34
  %128 = getelementptr inbounds nuw %struct.hwloc_topology_support, ptr %127, i32 0, i32 1
  %129 = load ptr, ptr %128, align 8, !tbaa !42
  %130 = call i32 %124(ptr noundef %125, ptr noundef %126, ptr noundef %129, ptr noundef %10, i16 noundef zeroext 2)
  store i32 %130, ptr %8, align 4, !tbaa !11
  br label %131

131:                                              ; preds = %121, %120
  call void @llvm.lifetime.end.p0(i64 8, ptr %17) #8
  br label %132

132:                                              ; preds = %131
  br label %133

133:                                              ; preds = %132
  %134 = load i32, ptr %8, align 4, !tbaa !11
  %135 = icmp ne i32 0, %134
  br i1 %135, label %136, label %138

136:                                              ; preds = %133
  %137 = load ptr, ptr %12, align 8, !tbaa !44
  call void @hwloc_topology_destroy(ptr noundef %137)
  store i32 -1, ptr %4, align 4
  store i32 1, ptr %15, align 4
  br label %169

138:                                              ; preds = %133
  store i32 15, ptr %10, align 4, !tbaa !11
  br label %139

139:                                              ; preds = %138
  call void @llvm.lifetime.start.p0(i64 8, ptr %18) #8
  %140 = load ptr, ptr %7, align 8, !tbaa !7
  %141 = call ptr @pmix_pointer_array_get_item(ptr noundef %140, i32 noundef 2)
  store ptr %141, ptr %18, align 8, !tbaa !3
  %142 = load ptr, ptr %18, align 8, !tbaa !3
  %143 = icmp eq ptr null, %142
  br i1 %143, label %144, label %145

144:                                              ; preds = %139
  store i32 -16, ptr %8, align 4, !tbaa !11
  br label %155

145:                                              ; preds = %139
  %146 = load ptr, ptr %18, align 8, !tbaa !3
  %147 = getelementptr inbounds nuw %struct.pmix_bfrop_type_info_t, ptr %146, i32 0, i32 4
  %148 = load ptr, ptr %147, align 8, !tbaa !26
  %149 = load ptr, ptr %7, align 8, !tbaa !7
  %150 = load ptr, ptr %5, align 8, !tbaa !3
  %151 = load ptr, ptr %11, align 8, !tbaa !34
  %152 = getelementptr inbounds nuw %struct.hwloc_topology_support, ptr %151, i32 0, i32 2
  %153 = load ptr, ptr %152, align 8, !tbaa !43
  %154 = call i32 %148(ptr noundef %149, ptr noundef %150, ptr noundef %153, ptr noundef %10, i16 noundef zeroext 2)
  store i32 %154, ptr %8, align 4, !tbaa !11
  br label %155

155:                                              ; preds = %145, %144
  call void @llvm.lifetime.end.p0(i64 8, ptr %18) #8
  br label %156

156:                                              ; preds = %155
  br label %157

157:                                              ; preds = %156
  %158 = load i32, ptr %8, align 4, !tbaa !11
  %159 = icmp ne i32 0, %158
  br i1 %159, label %160, label %162

160:                                              ; preds = %157
  %161 = load ptr, ptr %12, align 8, !tbaa !44
  call void @hwloc_topology_destroy(ptr noundef %161)
  store i32 -1, ptr %4, align 4
  store i32 1, ptr %15, align 4
  br label %169

162:                                              ; preds = %157
  %163 = call noalias ptr @strdup(ptr noundef @.str) #8
  %164 = load ptr, ptr %6, align 8, !tbaa !3
  %165 = getelementptr inbounds nuw %struct.pmix_topology_t, ptr %164, i32 0, i32 0
  store ptr %163, ptr %165, align 8, !tbaa !19
  %166 = load ptr, ptr %12, align 8, !tbaa !44
  %167 = load ptr, ptr %6, align 8, !tbaa !3
  %168 = getelementptr inbounds nuw %struct.pmix_topology_t, ptr %167, i32 0, i32 1
  store ptr %166, ptr %168, align 8, !tbaa !21
  store i32 0, ptr %4, align 4
  store i32 1, ptr %15, align 4
  br label %169

169:                                              ; preds = %162, %160, %136, %112, %86, %80, %71, %62, %51, %42, %37
  call void @llvm.lifetime.end.p0(i64 8, ptr %13) #8
  call void @llvm.lifetime.end.p0(i64 8, ptr %12) #8
  call void @llvm.lifetime.end.p0(i64 8, ptr %11) #8
  call void @llvm.lifetime.end.p0(i64 4, ptr %10) #8
  call void @llvm.lifetime.end.p0(i64 8, ptr %9) #8
  call void @llvm.lifetime.end.p0(i64 4, ptr %8) #8
  %170 = load i32, ptr %4, align 4
  ret i32 %170
}