; Function Attrs: nounwind uwtable
define i32 @pmix_hwloc_unpack_topology(ptr noundef %0, ptr noundef writeonly captures(none) %1, ptr noundef %2) local_unnamed_addr #0 {
  %4 = alloca ptr, align 8
  %5 = alloca i32, align 4
  %6 = alloca ptr, align 8
  call void @llvm.lifetime.start.p0(i64 8, ptr nonnull %4) #7
  store ptr null, ptr %4, align 8, !tbaa !3
  call void @llvm.lifetime.start.p0(i64 4, ptr nonnull %5) #7
  call void @llvm.lifetime.start.p0(i64 8, ptr nonnull %6) #7
  store i32 1, ptr %5, align 4, !tbaa !24
  %7 = getelementptr inbounds nuw i8, ptr %2, i64 128
  %8 = load i32, ptr %7, align 8, !tbaa !8
  %.not.i = icmp sgt i32 %8, 3
  br i1 %.not.i, label %pmix_pointer_array_get_item.exit, label %.thread, !prof !15

pmix_pointer_array_get_item.exit:                 ; preds = %3
  %9 = getelementptr inbounds nuw i8, ptr %2, i64 152
  %10 = load ptr, ptr %9, align 8, !tbaa !16
  %11 = getelementptr inbounds nuw i8, ptr %10, i64 24
  %12 = load ptr, ptr %11, align 8, !tbaa !17
  %13 = icmp eq ptr %12, null
  br i1 %13, label %.thread, label %14

14:                                               ; preds = %pmix_pointer_array_get_item.exit
  %15 = getelementptr inbounds nuw i8, ptr %12, i64 144
  %16 = load ptr, ptr %15, align 8, !tbaa !25
  %17 = call i32 %16(ptr noundef nonnull %2, ptr noundef %0, ptr noundef nonnull %4, ptr noundef nonnull %5, i16 noundef zeroext 3) #7
  %.not = icmp eq i32 %17, 0
  br i1 %.not, label %18, label %.thread

18:                                               ; preds = %14
  %19 = load ptr, ptr %4, align 8, !tbaa !3
  %20 = icmp eq ptr %19, null
  br i1 %20, label %21, label %24

21:                                               ; preds = %18
  %22 = call noalias dereferenceable_or_null(6) ptr @strdup(ptr noundef nonnull @.str) #7
  store ptr %22, ptr %1, align 8, !tbaa !21
  %23 = getelementptr inbounds nuw i8, ptr %1, i64 8
  store ptr null, ptr %23, align 8, !tbaa !23
  br label %.thread

24:                                               ; preds = %18
  %25 = call i32 @hwloc_topology_init(ptr noundef nonnull %6) #7
  %.not41 = icmp eq i32 %25, 0
  br i1 %.not41, label %28, label %26

26:                                               ; preds = %24
  %27 = load ptr, ptr %4, align 8, !tbaa !3
  call void @free(ptr noundef %27) #7
  br label %.thread

28:                                               ; preds = %24
  %29 = load ptr, ptr %6, align 8, !tbaa !38
  %30 = load ptr, ptr %4, align 8, !tbaa !3
  %31 = call i64 @strlen(ptr noundef nonnull dereferenceable(1) %30) #8
  %32 = trunc i64 %31 to i32
  %33 = call i32 @hwloc_topology_set_xmlbuffer(ptr noundef %29, ptr noundef nonnull %30, i32 noundef %32) #7
  %.not42 = icmp eq i32 %33, 0
  %34 = load ptr, ptr %4, align 8, !tbaa !3
  call void @free(ptr noundef %34) #7
  %35 = load ptr, ptr %6, align 8, !tbaa !38
  br i1 %.not42, label %37, label %36

36:                                               ; preds = %28
  call void @hwloc_topology_destroy(ptr noundef %35) #7
  br label %.thread

37:                                               ; preds = %28
  %38 = call i32 @hwloc_topology_set_io_types_filter(ptr noundef %35, i32 noundef 3) #7
  %.not43 = icmp eq i32 %38, 0
  %39 = load ptr, ptr %6, align 8, !tbaa !38
  br i1 %.not43, label %41, label %40

40:                                               ; preds = %37
  call void @hwloc_topology_destroy(ptr noundef %39) #7
  br label %.thread

41:                                               ; preds = %37
  %42 = call i32 @hwloc_topology_set_flags(ptr noundef %39, i64 noundef 3) #7
  %.not44 = icmp eq i32 %42, 0
  %43 = load ptr, ptr %6, align 8, !tbaa !38
  br i1 %.not44, label %45, label %44

44:                                               ; preds = %41
  call void @hwloc_topology_destroy(ptr noundef %43) #7
  br label %.thread

45:                                               ; preds = %41
  %46 = call i32 @hwloc_topology_load(ptr noundef %43) #7
  %.not45 = icmp eq i32 %46, 0
  %47 = load ptr, ptr %6, align 8, !tbaa !38
  br i1 %.not45, label %49, label %48

48:                                               ; preds = %45
  call void @hwloc_topology_destroy(ptr noundef %47) #7
  br label %.thread

49:                                               ; preds = %45
  %50 = call ptr @hwloc_topology_get_support(ptr noundef %47) #7
  store i32 6, ptr %5, align 4, !tbaa !24
  %51 = load i32, ptr %7, align 8, !tbaa !8
  %.not.i53 = icmp sgt i32 %51, 2
  br i1 %.not.i53, label %pmix_pointer_array_get_item.exit55, label %.critedge, !prof !15

pmix_pointer_array_get_item.exit55:               ; preds = %49
  %52 = load ptr, ptr %9, align 8, !tbaa !16
  %53 = getelementptr inbounds nuw i8, ptr %52, i64 16
  %54 = load ptr, ptr %53, align 8, !tbaa !17
  %55 = icmp eq ptr %54, null
  br i1 %55, label %.critedge, label %56

56:                                               ; preds = %pmix_pointer_array_get_item.exit55
  %57 = getelementptr inbounds nuw i8, ptr %54, i64 144
  %58 = load ptr, ptr %57, align 8, !tbaa !25
  %59 = load ptr, ptr %50, align 8, !tbaa !30
  %60 = call i32 %58(ptr noundef nonnull %2, ptr noundef %0, ptr noundef %59, ptr noundef nonnull %5, i16 noundef zeroext 2) #7
  %61 = icmp eq i32 %60, 0
  br i1 %61, label %63, label %.critedge

.critedge:                                        ; preds = %49, %pmix_pointer_array_get_item.exit55, %56
  %62 = load ptr, ptr %6, align 8, !tbaa !38
  call void @hwloc_topology_destroy(ptr noundef %62) #7
  br label %.thread

63:                                               ; preds = %56
  store i32 11, ptr %5, align 4, !tbaa !24
  %64 = load i32, ptr %7, align 8, !tbaa !8
  %.not.i56 = icmp sgt i32 %64, 2
  br i1 %.not.i56, label %pmix_pointer_array_get_item.exit58, label %.critedge50, !prof !15

pmix_pointer_array_get_item.exit58:               ; preds = %63
  %65 = load ptr, ptr %9, align 8, !tbaa !16
  %66 = getelementptr inbounds nuw i8, ptr %65, i64 16
  %67 = load ptr, ptr %66, align 8, !tbaa !17
  %68 = icmp eq ptr %67, null
  br i1 %68, label %.critedge50, label %69

69:                                               ; preds = %pmix_pointer_array_get_item.exit58
  %70 = getelementptr inbounds nuw i8, ptr %67, i64 144
  %71 = load ptr, ptr %70, align 8, !tbaa !25
  %72 = getelementptr inbounds nuw i8, ptr %50, i64 8
  %73 = load ptr, ptr %72, align 8, !tbaa !36
  %74 = call i32 %71(ptr noundef nonnull %2, ptr noundef %0, ptr noundef %73, ptr noundef nonnull %5, i16 noundef zeroext 2) #7
  %75 = icmp eq i32 %74, 0
  br i1 %75, label %77, label %.critedge50

.critedge50:                                      ; preds = %63, %pmix_pointer_array_get_item.exit58, %69
  %76 = load ptr, ptr %6, align 8, !tbaa !38
  call void @hwloc_topology_destroy(ptr noundef %76) #7
  br label %.thread

77:                                               ; preds = %69
  store i32 15, ptr %5, align 4, !tbaa !24
  %78 = load i32, ptr %7, align 8, !tbaa !8
  %.not.i59 = icmp sgt i32 %78, 2
  br i1 %.not.i59, label %pmix_pointer_array_get_item.exit61, label %.critedge52, !prof !15

pmix_pointer_array_get_item.exit61:               ; preds = %77
  %79 = load ptr, ptr %9, align 8, !tbaa !16
  %80 = getelementptr inbounds nuw i8, ptr %79, i64 16
  %81 = load ptr, ptr %80, align 8, !tbaa !17
  %82 = icmp eq ptr %81, null
  br i1 %82, label %.critedge52, label %83

83:                                               ; preds = %pmix_pointer_array_get_item.exit61
  %84 = getelementptr inbounds nuw i8, ptr %81, i64 144
  %85 = load ptr, ptr %84, align 8, !tbaa !25
  %86 = getelementptr inbounds nuw i8, ptr %50, i64 16
  %87 = load ptr, ptr %86, align 8, !tbaa !37
  %88 = call i32 %85(ptr noundef nonnull %2, ptr noundef %0, ptr noundef %87, ptr noundef nonnull %5, i16 noundef zeroext 2) #7
  %89 = icmp eq i32 %88, 0
  br i1 %89, label %91, label %.critedge52

.critedge52:                                      ; preds = %77, %pmix_pointer_array_get_item.exit61, %83
  %90 = load ptr, ptr %6, align 8, !tbaa !38
  call void @hwloc_topology_destroy(ptr noundef %90) #7
  br label %.thread

91:                                               ; preds = %83
  %92 = call noalias dereferenceable_or_null(6) ptr @strdup(ptr noundef nonnull @.str) #7
  store ptr %92, ptr %1, align 8, !tbaa !21
  %93 = load ptr, ptr %6, align 8, !tbaa !38
  %94 = getelementptr inbounds nuw i8, ptr %1, i64 8
  store ptr %93, ptr %94, align 8, !tbaa !23
  br label %.thread

.thread:                                          ; preds = %3, %pmix_pointer_array_get_item.exit, %14, %91, %.critedge52, %.critedge50, %.critedge, %48, %44, %40, %36, %26, %21
  %.0 = phi i32 [ 0, %21 ], [ -1, %26 ], [ -1, %36 ], [ -1, %40 ], [ -1, %44 ], [ -1, %48 ], [ -1, %.critedge ], [ -1, %.critedge50 ], [ -1, %.critedge52 ], [ 0, %91 ], [ %17, %14 ], [ -16, %pmix_pointer_array_get_item.exit ], [ -16, %3 ]
  call void @llvm.lifetime.end.p0(i64 8, ptr nonnull %6) #7
  call void @llvm.lifetime.end.p0(i64 4, ptr nonnull %5) #7
  call void @llvm.lifetime.end.p0(i64 8, ptr nonnull %4) #7
  ret i32 %.0
}